; ModuleID = 'source-C-CXX/9/151.c'
source_filename = "source-C-CXX/9/151.c"
target datalayout = "e-m:e-p270:32:32-p271:32:32-p272:64:64-i64:64-f80:128-n8:16:32:64-S128"
target triple = "x86_64-pc-linux-gnu"

@.str = private unnamed_addr constant [3 x i8] c"%d\00", align 1
@.str.1 = private unnamed_addr constant [4 x i8] c"%d\0A\00", align 1

; Function Attrs: nounwind sspstrong uwtable
define dso_local void @main() local_unnamed_addr #0 {
  %1 = alloca i32, align 4
  %2 = alloca [1000 x i32], align 16
  %3 = alloca [1000 x i32], align 16
  %4 = bitcast i32* %1 to i8*
  call void @llvm.lifetime.start.p0i8(i64 4, i8* nonnull %4) #4
  %5 = bitcast [1000 x i32]* %2 to i8*
  call void @llvm.lifetime.start.p0i8(i64 4000, i8* nonnull %5) #4
  %6 = bitcast [1000 x i32]* %3 to i8*
  call void @llvm.lifetime.start.p0i8(i64 4000, i8* nonnull %6) #4
  %7 = call i32 (i8*, ...) @__isoc99_scanf(i8* getelementptr inbounds ([3 x i8], [3 x i8]* @.str, i64 0, i64 0), i32* nonnull %1)
  %8 = load i32, i32* %1, align 4, !tbaa !5
  %9 = icmp sgt i32 %8, 0
  br i1 %9, label %10, label %140

10:                                               ; preds = %0
  %11 = zext i32 %8 to i64
  %12 = icmp ult i32 %8, 8
  br i1 %12, label %82, label %13

13:                                               ; preds = %10
  %14 = and i64 %11, 4294967288
  %15 = add nsw i64 %14, -8
  %16 = lshr exact i64 %15, 3
  %17 = add nuw nsw i64 %16, 1
  %18 = and i64 %17, 7
  %19 = icmp ult i64 %15, 56
  br i1 %19, label %67, label %20

20:                                               ; preds = %13
  %21 = and i64 %17, 4611686018427387896
  br label %22

22:                                               ; preds = %22, %20
  %23 = phi i64 [ 0, %20 ], [ %64, %22 ]
  %24 = phi i64 [ %21, %20 ], [ %65, %22 ]
  %25 = getelementptr inbounds [1000 x i32], [1000 x i32]* %3, i64 0, i64 %23
  %26 = bitcast i32* %25 to <4 x i32>*
  store <4 x i32> <i32 1, i32 1, i32 1, i32 1>, <4 x i32>* %26, align 16, !tbaa !5
  %27 = getelementptr inbounds i32, i32* %25, i64 4
  %28 = bitcast i32* %27 to <4 x i32>*
  store <4 x i32> <i32 1, i32 1, i32 1, i32 1>, <4 x i32>* %28, align 16, !tbaa !5
  %29 = or i64 %23, 8
  %30 = getelementptr inbounds [1000 x i32], [1000 x i32]* %3, i64 0, i64 %29
  %31 = bitcast i32* %30 to <4 x i32>*
  store <4 x i32> <i32 1, i32 1, i32 1, i32 1>, <4 x i32>* %31, align 16, !tbaa !5
  %32 = getelementptr inbounds i32, i32* %30, i64 4
  %33 = bitcast i32* %32 to <4 x i32>*
  store <4 x i32> <i32 1, i32 1, i32 1, i32 1>, <4 x i32>* %33, align 16, !tbaa !5
  %34 = or i64 %23, 16
  %35 = getelementptr inbounds [1000 x i32], [1000 x i32]* %3, i64 0, i64 %34
  %36 = bitcast i32* %35 to <4 x i32>*
  store <4 x i32> <i32 1, i32 1, i32 1, i32 1>, <4 x i32>* %36, align 16, !tbaa !5
  %37 = getelementptr inbounds i32, i32* %35, i64 4
  %38 = bitcast i32* %37 to <4 x i32>*
  store <4 x i32> <i32 1, i32 1, i32 1, i32 1>, <4 x i32>* %38, align 16, !tbaa !5
  %39 = or i64 %23, 24
  %40 = getelementptr inbounds [1000 x i32], [1000 x i32]* %3, i64 0, i64 %39
  %41 = bitcast i32* %40 to <4 x i32>*
  store <4 x i32> <i32 1, i32 1, i32 1, i32 1>, <4 x i32>* %41, align 16, !tbaa !5
  %42 = getelementptr inbounds i32, i32* %40, i64 4
  %43 = bitcast i32* %42 to <4 x i32>*
  store <4 x i32> <i32 1, i32 1, i32 1, i32 1>, <4 x i32>* %43, align 16, !tbaa !5
  %44 = or i64 %23, 32
  %45 = getelementptr inbounds [1000 x i32], [1000 x i32]* %3, i64 0, i64 %44
  %46 = bitcast i32* %45 to <4 x i32>*
  store <4 x i32> <i32 1, i32 1, i32 1, i32 1>, <4 x i32>* %46, align 16, !tbaa !5
  %47 = getelementptr inbounds i32, i32* %45, i64 4
  %48 = bitcast i32* %47 to <4 x i32>*
  store <4 x i32> <i32 1, i32 1, i32 1, i32 1>, <4 x i32>* %48, align 16, !tbaa !5
  %49 = or i64 %23, 40
  %50 = getelementptr inbounds [1000 x i32], [1000 x i32]* %3, i64 0, i64 %49
  %51 = bitcast i32* %50 to <4 x i32>*
  store <4 x i32> <i32 1, i32 1, i32 1, i32 1>, <4 x i32>* %51, align 16, !tbaa !5
  %52 = getelementptr inbounds i32, i32* %50, i64 4
  %53 = bitcast i32* %52 to <4 x i32>*
  store <4 x i32> <i32 1, i32 1, i32 1, i32 1>, <4 x i32>* %53, align 16, !tbaa !5
  %54 = or i64 %23, 48
  %55 = getelementptr inbounds [1000 x i32], [1000 x i32]* %3, i64 0, i64 %54
  %56 = bitcast i32* %55 to <4 x i32>*
  store <4 x i32> <i32 1, i32 1, i32 1, i32 1>, <4 x i32>* %56, align 16, !tbaa !5
  %57 = getelementptr inbounds i32, i32* %55, i64 4
  %58 = bitcast i32* %57 to <4 x i32>*
  store <4 x i32> <i32 1, i32 1, i32 1, i32 1>, <4 x i32>* %58, align 16, !tbaa !5
  %59 = or i64 %23, 56
  %60 = getelementptr inbounds [1000 x i32], [1000 x i32]* %3, i64 0, i64 %59
  %61 = bitcast i32* %60 to <4 x i32>*
  store <4 x i32> <i32 1, i32 1, i32 1, i32 1>, <4 x i32>* %61, align 16, !tbaa !5
  %62 = getelementptr inbounds i32, i32* %60, i64 4
  %63 = bitcast i32* %62 to <4 x i32>*
  store <4 x i32> <i32 1, i32 1, i32 1, i32 1>, <4 x i32>* %63, align 16, !tbaa !5
  %64 = add nuw i64 %23, 64
  %65 = add i64 %24, -8
  %66 = icmp eq i64 %65, 0
  br i1 %66, label %67, label %22, !llvm.loop !9

67:                                               ; preds = %22, %13
  %68 = phi i64 [ 0, %13 ], [ %64, %22 ]
  %69 = icmp eq i64 %18, 0
  br i1 %69, label %80, label %70

70:                                               ; preds = %67, %70
  %71 = phi i64 [ %77, %70 ], [ %68, %67 ]
  %72 = phi i64 [ %78, %70 ], [ %18, %67 ]
  %73 = getelementptr inbounds [1000 x i32], [1000 x i32]* %3, i64 0, i64 %71
  %74 = bitcast i32* %73 to <4 x i32>*
  store <4 x i32> <i32 1, i32 1, i32 1, i32 1>, <4 x i32>* %74, align 16, !tbaa !5
  %75 = getelementptr inbounds i32, i32* %73, i64 4
  %76 = bitcast i32* %75 to <4 x i32>*
  store <4 x i32> <i32 1, i32 1, i32 1, i32 1>, <4 x i32>* %76, align 16, !tbaa !5
  %77 = add nuw i64 %71, 8
  %78 = add i64 %72, -1
  %79 = icmp eq i64 %78, 0
  br i1 %79, label %80, label %70, !llvm.loop !12

80:                                               ; preds = %70, %67
  %81 = icmp eq i64 %14, %11
  br i1 %81, label %84, label %82

82:                                               ; preds = %10, %80
  %83 = phi i64 [ 0, %10 ], [ %14, %80 ]
  br label %85

84:                                               ; preds = %85, %80
  br i1 %9, label %92, label %140

85:                                               ; preds = %82, %85
  %86 = phi i64 [ %88, %85 ], [ %83, %82 ]
  %87 = getelementptr inbounds [1000 x i32], [1000 x i32]* %3, i64 0, i64 %86
  store i32 1, i32* %87, align 4, !tbaa !5
  %88 = add nuw nsw i64 %86, 1
  %89 = icmp eq i64 %88, %11
  br i1 %89, label %84, label %85, !llvm.loop !14

90:                                               ; preds = %92
  %91 = icmp sgt i32 %97, 0
  br i1 %91, label %100, label %140

92:                                               ; preds = %84, %92
  %93 = phi i64 [ %96, %92 ], [ 0, %84 ]
  %94 = getelementptr inbounds [1000 x i32], [1000 x i32]* %2, i64 0, i64 %93
  %95 = call i32 (i8*, ...) @__isoc99_scanf(i8* getelementptr inbounds ([3 x i8], [3 x i8]* @.str, i64 0, i64 0), i32* nonnull %94)
  %96 = add nuw nsw i64 %93, 1
  %97 = load i32, i32* %1, align 4, !tbaa !5
  %98 = sext i32 %97 to i64
  %99 = icmp slt i64 %96, %98
  br i1 %99, label %92, label %90, !llvm.loop !16

100:                                              ; preds = %90, %125
  %101 = phi i32 [ %126, %125 ], [ %97, %90 ]
  %102 = phi i64 [ %127, %125 ], [ 0, %90 ]
  %103 = getelementptr inbounds [1000 x i32], [1000 x i32]* %2, i64 0, i64 %102
  %104 = getelementptr inbounds [1000 x i32], [1000 x i32]* %3, i64 0, i64 %102
  %105 = icmp eq i64 %102, 0
  br i1 %105, label %125, label %108

106:                                              ; preds = %125
  %107 = icmp sgt i32 %126, 0
  br i1 %107, label %130, label %140

108:                                              ; preds = %100, %120
  %109 = phi i64 [ %121, %120 ], [ 0, %100 ]
  %110 = getelementptr inbounds [1000 x i32], [1000 x i32]* %2, i64 0, i64 %109
  %111 = load i32, i32* %110, align 4, !tbaa !5
  %112 = load i32, i32* %103, align 4, !tbaa !5
  %113 = icmp slt i32 %111, %112
  br i1 %113, label %120, label %114

114:                                              ; preds = %108
  %115 = getelementptr inbounds [1000 x i32], [1000 x i32]* %3, i64 0, i64 %109
  %116 = load i32, i32* %115, align 4, !tbaa !5
  %117 = add nsw i32 %116, 1
  %118 = load i32, i32* %104, align 4, !tbaa !5
  %119 = call i32 (i32, i32, ...) bitcast (i32 (...)* @MAX to i32 (i32, i32, ...)*)(i32 %117, i32 %118) #4
  store i32 %119, i32* %104, align 4, !tbaa !5
  br label %120

120:                                              ; preds = %108, %114
  %121 = add nuw nsw i64 %109, 1
  %122 = icmp eq i64 %121, %102
  br i1 %122, label %123, label %108, !llvm.loop !17

123:                                              ; preds = %120
  %124 = load i32, i32* %1, align 4, !tbaa !5
  br label %125

125:                                              ; preds = %123, %100
  %126 = phi i32 [ %124, %123 ], [ %101, %100 ]
  %127 = add nuw nsw i64 %102, 1
  %128 = sext i32 %126 to i64
  %129 = icmp slt i64 %127, %128
  br i1 %129, label %100, label %106, !llvm.loop !18

130:                                              ; preds = %106, %130
  %131 = phi i64 [ %136, %130 ], [ 0, %106 ]
  %132 = phi i32 [ %135, %130 ], [ 0, %106 ]
  %133 = getelementptr inbounds [1000 x i32], [1000 x i32]* %3, i64 0, i64 %131
  %134 = load i32, i32* %133, align 4, !tbaa !5
  %135 = call i32 (i32, i32, ...) bitcast (i32 (...)* @MAX to i32 (i32, i32, ...)*)(i32 %132, i32 %134) #4
  %136 = add nuw nsw i64 %131, 1
  %137 = load i32, i32* %1, align 4, !tbaa !5
  %138 = sext i32 %137 to i64
  %139 = icmp slt i64 %136, %138
  br i1 %139, label %130, label %140, !llvm.loop !19

140:                                              ; preds = %130, %0, %84, %90, %106
  %141 = phi i32 [ 0, %106 ], [ 0, %90 ], [ 0, %84 ], [ 0, %0 ], [ %135, %130 ]
  %142 = call i32 (i8*, ...) @printf(i8* nonnull dereferenceable(1) getelementptr inbounds ([4 x i8], [4 x i8]* @.str.1, i64 0, i64 0), i32 %141)
  call void @llvm.lifetime.end.p0i8(i64 4000, i8* nonnull %6) #4
  call void @llvm.lifetime.end.p0i8(i64 4000, i8* nonnull %5) #4
  call void @llvm.lifetime.end.p0i8(i64 4, i8* nonnull %4) #4
  ret void
}

; Function Attrs: argmemonly mustprogress nofree nosync nounwind willreturn
declare void @llvm.lifetime.start.p0i8(i64 immarg, i8* nocapture) #1

; Function Attrs: nofree nounwind
declare noundef i32 @__isoc99_scanf(i8* nocapture noundef readonly, ...) local_unnamed_addr #2

declare i32 @MAX(...) local_unnamed_addr #3

; Function Attrs: nofree nounwind
declare noundef i32 @printf(i8* nocapture noundef readonly, ...) local_unnamed_addr #2

; Function Attrs: argmemonly mustprogress nofree nosync nounwind willreturn
declare void @llvm.lifetime.end.p0i8(i64 immarg, i8* nocapture) #1


!llvm.module.flags = !{!0, !1, !2, !3}
!llvm.ident = !{!4}

!0 = !{i32 1, !"wchar_size", i32 4}
!1 = !{i32 7, !"PIC Level", i32 2}
!2 = !{i32 7, !"PIE Level", i32 2}
!3 = !{i32 7, !"uwtable", i32 1}
!4 = !{!"clang version 13.0.0"}
!5 = !{!6, !6, i64 0}
!6 = !{!"int", !7, i64 0}
!7 = !{!"omnipotent char", !8, i64 0}
!8 = !{!"Simple C/C++ TBAA"}
!9 = distinct !{!9, !10, !11}
!10 = !{!"llvm.loop.mustprogress"}
!11 = !{!"llvm.loop.isvectorized", i32 1}
!12 = distinct !{!12, !13}
!13 = !{!"llvm.loop.unroll.disable"}
!14 = distinct !{!14, !10, !15, !11}
!15 = !{!"llvm.loop.unroll.runtime.disable"}
!16 = distinct !{!16, !10}
!17 = distinct !{!17, !10}
!18 = distinct !{!18, !10}
!19 = distinct !{!19, !10}
